Certificate:
    Data:
        Version: 3 (0x2)
        Serial Number: 1143 (0x477)
        Signature Algorithm: sha1WithRSAEncryption
        Issuer: DC=org, DC=ugrid, CN=UGRID CA
        Validity
            Not Before: Feb 20 12:23:39 2013 GMT
            Not After : Feb 20 12:23:39 2014 GMT
        Subject: DC=org, DC=ugrid, O=people, O=UGRID, CN=Olga Prila
        Subject Public Key Info:
            Public Key Algorithm: rsaEncryption
            RSA Public Key: (2048 bit)
                Modulus (2048 bit):
                    00:f5:48:96:75:3b:ac:b0:57:64:6d:51:29:44:c3:
                    9a:66:72:7a:c7:a3:41:77:fc:c6:ac:d5:fa:7f:5d:
                    98:56:6d:72:44:29:ea:b5:45:7c:ff:19:8c:cd:c6:
                    13:14:26:0b:8a:a4:64:e7:50:00:c2:87:01:b7:df:
                    9b:7c:c3:b4:f6:25:37:65:83:ad:bb:85:db:ad:f6:
                    97:9e:ca:2a:7b:f8:8f:f7:85:e0:0f:6e:f4:04:4f:
                    7f:18:a2:10:a5:f1:11:0b:df:e0:08:5d:34:d6:c3:
                    fa:44:ba:31:f7:9a:b4:86:14:88:49:bc:51:a1:88:
                    67:65:b1:b9:2c:40:9e:d2:b4:ba:d4:31:a1:1d:9e:
                    ff:8b:da:39:81:d3:75:42:d0:4c:41:d7:88:38:53:
                    3a:84:b2:92:22:32:50:74:5d:e2:23:d3:bf:39:5b:
                    cd:2d:f9:2a:64:ef:b0:73:7e:df:66:48:72:24:cd:
                    73:43:4e:4d:b5:d9:09:f4:05:ca:27:87:1f:c5:0e:
                    28:e7:fa:9d:41:ba:c6:57:fe:46:89:45:2f:ba:1c:
                    c7:8d:d3:ac:c9:6a:d8:42:1b:ee:5e:b7:f5:1f:4f:
                    88:f7:8e:47:6d:37:44:17:c5:12:12:4e:38:8a:a4:
                    56:44:32:f0:38:65:d9:f6:ec:aa:c4:e6:2a:da:58:
                    56:61
                Exponent: 65537 (0x10001)
        X509v3 extensions:
            X509v3 Basic Constraints: critical
                CA:FALSE
            X509v3 Key Usage: critical
                Digital Signature, Non Repudiation, Key Encipherment, Data Encipherment
            X509v3 Extended Key Usage: 
                TLS Web Client Authentication, E-mail Protection
            X509v3 Subject Key Identifier: 
                02:91:7F:E1:49:6D:82:8A:A6:AC:53:43:13:FD:C3:4B:CF:BB:61:C7
            X509v3 Authority Key Identifier: 
                keyid:CD:C0:D7:E1:B5:7D:9F:A9:94:48:4E:E8:14:56:55:94:ED:FF:BC:A0

            X509v3 Issuer Alternative Name: 
                email:ca@ugrid.org
            X509v3 Subject Alternative Name: 
                email:olga.prila1986@gmail.com
            X509v3 CRL Distribution Points: 
                URI:http://ca.ugrid.org/cacrl.der

            X509v3 Certificate Policies: 
                Policy: 1.2.840.113612.5.4.2.6.1.1.1.4

    Signature Algorithm: sha1WithRSAEncryption
        64:be:dd:f4:37:46:3c:f2:bf:fb:3d:f0:51:32:d0:f2:f1:94:
        b4:2b:a4:c9:b8:a0:70:9d:25:ae:ad:f0:47:b0:e4:8d:71:c0:
        b5:43:51:a1:93:f9:5d:47:6e:9c:1d:47:51:dd:66:f3:8e:5c:
        1e:d5:40:a7:63:a2:bd:d0:f3:58:fb:b3:00:9a:cc:34:20:e7:
        ff:89:61:78:87:1e:6c:7b:70:1e:9a:3b:fc:f9:98:8e:e3:3a:
        ff:73:b2:b1:11:57:df:42:4f:fa:9b:da:c8:b7:49:e1:a6:fd:
        31:4e:68:a1:34:14:1a:01:d4:37:15:2b:fb:e8:bd:32:93:4d:
        1b:e4:05:78:9d:18:e7:ba:a5:f3:b9:0a:ab:7a:e2:4d:dc:a8:
        bb:0e:57:7c:5e:62:36:64:86:74:67:f2:f5:fe:37:e8:dd:9e:
        6b:8c:28:62:2a:d1:13:b3:04:3c:ce:b7:ea:29:36:9a:67:52:
        a9:00:56:fc:f2:7e:b9:c1:c8:11:ed:15:99:c0:57:91:08:55:
        89:f6:63:d2:3e:e2:26:03:d4:40:a9:f1:54:51:07:ce:56:5e:
        7f:c9:ca:00:a5:1f:be:77:cd:c1:24:d5:62:25:e0:38:16:d8:
        7b:7f:a3:fe:81:f7:34:0c:37:40:da:41:a4:5f:bd:d1:ad:74:
        f1:9d:8d:bc
-----BEGIN CERTIFICATE-----
MIIEKzCCAxOgAwIBAgICBHcwDQYJKoZIhvcNAQEFBQAwPzETMBEGCgmSJomT8ixk
ARkWA29yZzEVMBMGCgmSJomT8ixkARkWBXVncmlkMREwDwYDVQQDEwhVR1JJRCBD
QTAeFw0xMzAyMjAxMjIzMzlaFw0xNDAyMjAxMjIzMzlaMGIxEzARBgoJkiaJk/Is
ZAEZFgNvcmcxFTATBgoJkiaJk/IsZAEZFgV1Z3JpZDEPMA0GA1UEChMGcGVvcGxl
MQ4wDAYDVQQKEwVVR1JJRDETMBEGA1UEAxMKT2xnYSBQcmlsYTCCASIwDQYJKoZI
hvcNAQEBBQADggEPADCCAQoCggEBAPVIlnU7rLBXZG1RKUTDmmZyesejQXf8xqzV
+n9dmFZtckQp6rVFfP8ZjM3GExQmC4qkZOdQAMKHAbffm3zDtPYlN2WDrbuF2632
l57KKnv4j/eF4A9u9ARPfxiiEKXxEQvf4AhdNNbD+kS6MfeatIYUiEm8UaGIZ2Wx
uSxAntK0utQxoR2e/4vaOYHTdULQTEHXiDhTOoSykiIyUHRd4iPTvzlbzS35KmTv
sHN+32ZIciTNc0NOTbXZCfQFyieHH8UOKOf6nUG6xlf+RolFL7ocx43TrMlq2EIb
7l639R9PiPeOR203RBfFEhJOOIqkVkQy8Dhl2fbsqsTmKtpYVmECAwEAAaOCAQww
ggEIMAwGA1UdEwEB/wQCMAAwDgYDVR0PAQH/BAQDAgTwMB0GA1UdJQQWMBQGCCsG
AQUFBwMCBggrBgEFBQcDBDAdBgNVHQ4EFgQUApF/4UltgoqmrFNDE/3DS8+7Yccw
HwYDVR0jBBgwFoAUzcDX4bV9n6mUSE7oFFZVlO3/vKAwFwYDVR0SBBAwDoEMY2FA
dWdyaWQub3JnMCMGA1UdEQQcMBqBGG9sZ2EucHJpbGExOTg2QGdtYWlsLmNvbTAu
BgNVHR8EJzAlMCOgIaAfhh1odHRwOi8vY2EudWdyaWQub3JnL2NhY3JsLmRlcjAb
BgNVHSAEFDASMBAGDiqGSIb3TAUEAgYBAQEEMA0GCSqGSIb3DQEBBQUAA4IBAQBk
vt30N0Y88r/7PfBRMtDy8ZS0K6TJuKBwnSWurfBHsOSNccC1Q1Ghk/ldR26cHUdR
3Wbzjlwe1UCnY6K90PNY+7MAmsw0IOf/iWF4hx5se3Aemjv8+ZiO4zr/c7KxEVff
Qk/6m9rIt0nhpv0xTmihNBQaAdQ3FSv76L0yk00b5AV4nRjnuqXzuQqreuJN3Ki7
Dld8XmI2ZIZ0Z/L1/jfo3Z5rjChiKtETswQ8zrfqKTaaZ1KpAFb88n65wcgR7RWZ
wFeRCFWJ9mPSPuImA9RAqfFUUQfOVl5/ycoApR++d83BJNViJeA4Fth7f6P+gfc0
DDdA2kGkX73RrXTxnY28
-----END CERTIFICATE-----
